; Function Attrs: nounwind uwtable
define dso_local i32 @curl_easy_setopt(ptr noundef %0, i32 noundef %1, ...) local_unnamed_addr #0 {
  %3 = alloca [1 x %struct.__va_list_tag], align 16
  call void @llvm.lifetime.start.p0(i64 24, ptr nonnull %3) #10
  %.not = icmp eq ptr %0, null
  br i1 %.not, label %6, label %4

4:                                                ; preds = %2
  call void @llvm.va_start.p0(ptr nonnull %3)
  %5 = call i32 @Curl_vsetopt(ptr noundef nonnull %0, i32 noundef %1, ptr noundef nonnull %3)
  call void @llvm.va_end.p0(ptr nonnull %3)
  br label %6

6:                                                ; preds = %2, %4
  %.0 = phi i32 [ %5, %4 ], [ 43, %2 ]
  call void @llvm.lifetime.end.p0(i64 24, ptr nonnull %3) #10
  ret i32 %.0
}